; Function Attrs: nounwind uwtable
define i64 @widget_out(ptr noundef readonly captures(none) %0) local_unnamed_addr #1 {
  %2 = getelementptr inbounds nuw i8, ptr %0, i64 32
  %3 = load i64, ptr %2, align 8
  %4 = inttoptr i64 %3 to ptr
  %5 = load double, ptr %4, align 8
  %6 = getelementptr inbounds nuw i8, ptr %4, i64 8
  %7 = load double, ptr %6, align 8
  %8 = getelementptr inbounds nuw i8, ptr %4, i64 16
  %9 = load double, ptr %8, align 8
  %10 = tail call ptr (ptr, ...) @psprintf(ptr noundef nonnull @.str.4, double noundef %5, double noundef %7, double noundef %9) #18
  %11 = ptrtoint ptr %10 to i64
  ret i64 %11
}